
ABC.elf:     file format elf64-littleriscv
ABC.elf
architecture: riscv:rv64, flags 0x00000112:
EXEC_P, HAS_SYMS, D_PAGED
start address 0x0000000080000000

Program Header:
    LOAD off    0x0000000000001000 vaddr 0x0000000080000000 paddr 0x0000000080000000 align 2**12
         filesz 0x0000000000000155 memsz 0x0000000000000155 flags rwx

Sections:
Idx Name          Size      VMA               LMA               File off  Algn
  0 BOOTUP_0      00000155  0000000080000000  0000000080000000  00001000  2**4
                  CONTENTS, ALLOC, LOAD, CODE
SYMBOL TABLE:
0000000080000000 l    d  BOOTUP_0	0000000000000000 BOOTUP_0
0000000000000000 l    df *ABS*	0000000000000000 abc.o
0000000080000020 l       BOOTUP_0	0000000000000000 my_label
0000000080000000 g       BOOTUP_0	0000000000000000 _start


Contents of section BOOTUP_0:
 80000000 13032000 93035000 33836300 97030000  .. ...P.3.c.....
 80000010 93834301 03a40300 83a44300 b3049400  ..C.......C.....
 80000020 08000000 05000000 59000000 04001d00  ........Y.......
 80000030 00000101 01fb0e0d 00010101 01000000  ................
 80000040 01000001 00616263 2e730000 00000000  .....abc.s......
 80000050 09020000 00800000 00001603 01090400  ................
 80000060 01030109 04000103 02090400 01030109  ................
 80000070 08000103 02090400 01030109 04000109  ................
 80000080 04000001 01230000 000400ac 00008008  .....#..........
 80000090 01280000 80000000 80000000 0020f000  .(........... ..
 800000a0 0080f600 00801201 00800180 01110010  ................
 800000b0 17110112 0f030e1b 0e250e13 05000000  .........%......
 800000c0 2c000000 02008500 00800800 00000000  ,...............
 800000d0 00000080 00000000 20000000 00000000  ........ .......
 800000e0 00000000 00000000 00000000 00000000  ................
 800000f0 6162632e 73002f68 6f6d652f 76616c74  abc.s./home/valt
 80000100 7269782f 776f726b 2f747261 696e696e  rix/work/trainin
 80000110 6700474e 55204153 20322e33 38004136  g.GNU AS 2.38.A6
 80000120 00000072 69736376 00012c00 00000572  ...riscv..,....r
 80000130 76363469 3270315f 6d327030 5f613270  v64i2p1_m2p0_a2p
 80000140 315f6632 70325f64 3270325f 7a696373  1_f2p2_d2p2_zics
 80000150 72327030 00                          r2p0.           

Disassembly of section BOOTUP_0:

0000000080000000 <_start>:
    80000000:	00200313          	li	t1,2
    80000004:	00500393          	li	t2,5
    80000008:	00638333          	add	t1,t2,t1
    8000000c:	00000397          	auipc	t2,0x0
    80000010:	01438393          	addi	t2,t2,20 # 80000020 <my_label>
    80000014:	0003a403          	lw	s0,0(t2)
    80000018:	0043a483          	lw	s1,4(t2)
    8000001c:	009404b3          	add	s1,s0,s1

0000000080000020 <my_label>:
    80000020:	0008                	.2byte	0x8
    80000022:	0000                	unimp
    80000024:	0005                	c.nop	1
    80000026:	0000                	unimp
    80000028:	0059                	c.nop	22
    8000002a:	0000                	unimp
    8000002c:	0004                	.2byte	0x4
    8000002e:	001d                	c.nop	7
    80000030:	0000                	unimp
    80000032:	0101                	addi	sp,sp,0
    80000034:	fb01                	bnez	a4,7fffff44 <_start-0xbc>
    80000036:	0d0e                	slli	s10,s10,0x3
    80000038:	0100                	addi	s0,sp,128
    8000003a:	0101                	addi	sp,sp,0
    8000003c:	0001                	nop
    8000003e:	0000                	unimp
    80000040:	0001                	nop
    80000042:	0100                	addi	s0,sp,128
    80000044:	6100                	ld	s0,0(a0)
    80000046:	6362                	ld	t1,24(sp)
    80000048:	732e                	ld	t1,232(sp)
    8000004a:	0000                	unimp
    8000004c:	0000                	unimp
    8000004e:	0000                	unimp
    80000050:	0209                	addi	tp,tp,2 # 2 <_start-0x7ffffffe>
    80000052:	0000                	unimp
    80000054:	8000                	.2byte	0x8000
    80000056:	0000                	unimp
    80000058:	0000                	unimp
    8000005a:	0316                	slli	t1,t1,0x5
    8000005c:	0901                	addi	s2,s2,0
    8000005e:	0004                	.2byte	0x4
    80000060:	0301                	addi	t1,t1,0
    80000062:	0901                	addi	s2,s2,0
    80000064:	0004                	.2byte	0x4
    80000066:	0301                	addi	t1,t1,0
    80000068:	0902                	c.slli64	s2
    8000006a:	0004                	.2byte	0x4
    8000006c:	0301                	addi	t1,t1,0
    8000006e:	0901                	addi	s2,s2,0
    80000070:	0008                	.2byte	0x8
    80000072:	0301                	addi	t1,t1,0
    80000074:	0902                	c.slli64	s2
    80000076:	0004                	.2byte	0x4
    80000078:	0301                	addi	t1,t1,0
    8000007a:	0901                	addi	s2,s2,0
    8000007c:	0004                	.2byte	0x4
    8000007e:	0901                	addi	s2,s2,0
    80000080:	0004                	.2byte	0x4
    80000082:	0100                	addi	s0,sp,128
    80000084:	2301                	sext.w	t1,t1
    80000086:	0000                	unimp
    80000088:	0400                	addi	s0,sp,512
    8000008a:	ac00                	fsd	fs0,24(s0)
    8000008c:	0000                	unimp
    8000008e:	0880                	addi	s0,sp,80
    80000090:	2801                	sext.w	a6,a6
    80000092:	0000                	unimp
    80000094:	0080                	addi	s0,sp,64
    80000096:	0000                	unimp
    80000098:	0080                	addi	s0,sp,64
    8000009a:	0000                	unimp
    8000009c:	2000                	fld	fs0,0(s0)
    8000009e:	00f0                	addi	a2,sp,76
    800000a0:	8000                	.2byte	0x8000
    800000a2:	00f6                	slli	ra,ra,0x1d
    800000a4:	8000                	.2byte	0x8000
    800000a6:	0112                	slli	sp,sp,0x4
    800000a8:	8000                	.2byte	0x8000
    800000aa:	8001                	c.srli64	s0
    800000ac:	1101                	addi	sp,sp,-32
    800000ae:	1000                	addi	s0,sp,32
    800000b0:	12011117          	auipc	sp,0x12011
    800000b4:	1b0e030f          	.4byte	0x1b0e030f
    800000b8:	250e                	fld	fa0,192(sp)
    800000ba:	130e                	slli	t1,t1,0x23
    800000bc:	0005                	c.nop	1
    800000be:	0000                	unimp
    800000c0:	002c                	addi	a1,sp,8
    800000c2:	0000                	unimp
    800000c4:	0002                	c.slli64	zero
    800000c6:	0085                	addi	ra,ra,1
    800000c8:	8000                	.2byte	0x8000
    800000ca:	0008                	.2byte	0x8
    800000cc:	0000                	unimp
    800000ce:	0000                	unimp
    800000d0:	0000                	unimp
    800000d2:	8000                	.2byte	0x8000
    800000d4:	0000                	unimp
    800000d6:	0000                	unimp
    800000d8:	0020                	addi	s0,sp,8
	...
    800000ee:	0000                	unimp
    800000f0:	6261                	lui	tp,0x18
    800000f2:	00732e63          	.4byte	0x732e63
    800000f6:	6d6f682f          	.4byte	0x6d6f682f
    800000fa:	2f65                	addiw	t5,t5,25
    800000fc:	6176                	ld	sp,344(sp)
    800000fe:	746c                	ld	a1,232(s0)
    80000100:	6972                	ld	s2,280(sp)
    80000102:	2f78                	fld	fa4,216(a4)
    80000104:	6b726f77          	.4byte	0x6b726f77
    80000108:	6172742f          	.4byte	0x6172742f
    8000010c:	6e69                	lui	t3,0x1a
    8000010e:	6e69                	lui	t3,0x1a
    80000110:	4e470067          	jr	1252(a4)
    80000114:	2055                	.2byte	0x2055
    80000116:	5341                	li	t1,-16
    80000118:	3220                	fld	fs0,96(a2)
    8000011a:	332e                	fld	ft6,232(sp)
    8000011c:	0038                	addi	a4,sp,8
    8000011e:	3641                	addiw	a2,a2,-16
    80000120:	0000                	unimp
    80000122:	7200                	ld	s0,32(a2)
    80000124:	7369                	lui	t1,0xffffa
    80000126:	01007663          	bgeu	zero,a6,80000132 <my_label+0x112>
    8000012a:	002c                	addi	a1,sp,8
    8000012c:	0000                	unimp
    8000012e:	7205                	lui	tp,0xfffe1
    80000130:	3676                	fld	fa2,376(sp)
    80000132:	6934                	ld	a3,80(a0)
    80000134:	7032                	.2byte	0x7032
    80000136:	5f31                	li	t5,-20
    80000138:	326d                	addiw	tp,tp,-5 # fffffffffffe0ffb <my_label+0xffffffff7ffe0fdb>
    8000013a:	3070                	fld	fa2,224(s0)
    8000013c:	615f 7032 5f31      	.byte	0x5f, 0x61, 0x32, 0x70, 0x31, 0x5f
    80000142:	3266                	fld	ft4,120(sp)
    80000144:	3270                	fld	fa2,224(a2)
    80000146:	645f 7032 5f32      	.byte	0x5f, 0x64, 0x32, 0x70, 0x32, 0x5f
    8000014c:	697a                	ld	s2,408(sp)
    8000014e:	32727363          	bgeu	tp,t2,80000474 <my_label+0x454>
    80000152:	3070                	fld	fa2,224(s0)
	...
